	.file	"more_functions.c"
	.intel_syntax noprefix
	.text
	.section	.rodata
	.align 8
.LC0:
	.string	"You have caled another_function"
	.text
	.globl	another_function
	.type	another_function, @function
another_function:
.LFB0:
	.cfi_startproc
	endbr64
	push	rbp
	.cfi_def_cfa_offset 16
	.cfi_offset 6, -16
	mov	rbp, rsp
	.cfi_def_cfa_register 6
	lea	rdi, .LC0[rip]
	call	puts@PLT
	nop
	pop	rbp
	.cfi_def_cfa 7, 8
	ret
	.cfi_endproc
.LFE0:
	.size	another_function, .-another_function
	.section	.rodata
	.align 8
.LC1:
	.string	"You have called yet_another_function"
	.text
	.globl	yet_another_function
	.type	yet_another_function, @function
yet_another_function:
.LFB1:
	.cfi_startproc
	endbr64
	push	rbp
	.cfi_def_cfa_offset 16
	.cfi_offset 6, -16
	mov	rbp, rsp
	.cfi_def_cfa_register 6
	lea	rdi, .LC1[rip]
	call	puts@PLT
	nop
	pop	rbp
	.cfi_def_cfa 7, 8
	ret
	.cfi_endproc
.LFE1:
	.size	yet_another_function, .-yet_another_function
	.ident	"GCC: (Ubuntu 9.3.0-10ubuntu2) 9.3.0"
	.section	.note.GNU-stack,"",@progbits
	.section	.note.gnu.property,"a"
	.align 8
	.long	 1f - 0f
	.long	 4f - 1f
	.long	 5
0:
	.string	 "GNU"
1:
	.align 8
	.long	 0xc0000002
	.long	 3f - 2f
2:
	.long	 0x3
3:
	.align 8
4:
